Certificate:
    Data:
        Version: 3 (0x2)
        Serial Number: 1 (0x1)
        Signature Algorithm: sha1WithRSAEncryption
        Issuer: C=ES, ST=MA, L=BOA, O=FIM, OU=UPM, CN=CA_DSSR/emailAddress=CA_DSSR@FI.UPM.ES
        Validity
            Not Before: Apr 29 17:19:00 2015 GMT
            Not After : Apr 28 17:19:00 2016 GMT
        Subject: C=as, ST=as, O=as, OU=as, CN=gh/emailAddress=gh
        Subject Public Key Info:
            Public Key Algorithm: rsaEncryption
            RSA Public Key: (1024 bit)
                Modulus (1024 bit):
                    00:bb:5c:be:dc:c8:73:3d:db:89:98:61:f6:7d:f5:
                    4e:2e:37:00:d8:ee:2e:52:19:a6:98:ab:b7:db:9d:
                    a0:0c:66:4d:b9:a4:8d:37:2e:a8:71:fb:cf:2e:d1:
                    13:78:67:79:1a:c8:47:a8:66:99:c6:a3:57:a0:33:
                    e9:85:96:2f:b1:e5:8a:83:f1:2f:25:6e:3b:3b:72:
                    19:57:9f:6e:8d:8e:17:9e:b8:cc:99:5b:5d:46:25:
                    68:3c:10:77:a2:34:b0:fc:e9:0d:d3:ee:e5:16:52:
                    64:e2:a6:d0:42:c0:f9:49:ad:cf:2f:a5:6b:59:0b:
                    0f:7d:c9:be:f3:13:e2:f8:4f
                Exponent: 65537 (0x10001)
        X509v3 extensions:
            X509v3 Basic Constraints: 
                CA:FALSE
            Netscape Comment: 
                OpenSSL Generated Certificate
            X509v3 Subject Key Identifier: 
                5B:E4:F1:84:60:67:E8:1C:ED:47:EB:28:1F:5B:D1:3F:32:DA:2D:EA
            X509v3 Authority Key Identifier: 
                keyid:C8:A3:9B:98:44:3D:EF:CE:50:1A:58:1D:EE:42:C2:A3:53:E2:1F:FE

    Signature Algorithm: sha1WithRSAEncryption
        8f:58:50:2f:49:30:35:66:7a:dd:69:9c:c0:1d:bc:ce:52:8f:
        5f:17:49:ec:b1:c9:f2:c4:5e:2c:9e:7f:67:9c:25:82:0b:01:
        f9:4a:e9:f7:2d:8b:94:a7:22:f1:a7:94:0a:3e:84:5f:a9:06:
        c7:ac:f7:a9:9c:f0:75:1a:52:f0:79:dc:90:8a:cd:ba:99:4e:
        3f:aa:5e:cb:4c:b5:40:a4:4f:b2:ac:8e:a6:15:47:58:fa:f8:
        c2:c7:79:51:6f:6b:a8:d9:20:b6:96:42:45:e0:45:97:df:18:
        e6:17:17:92:c9:54:ad:5c:ba:d5:3c:9a:c8:c2:0e:92:8e:ea:
        41:18
-----BEGIN CERTIFICATE-----
MIICvTCCAiagAwIBAgIBATANBgkqhkiG9w0BAQUFADB4MQswCQYDVQQGEwJFUzEL
MAkGA1UECBMCTUExDDAKBgNVBAcTA0JPQTEMMAoGA1UEChMDRklNMQwwCgYDVQQL
EwNVUE0xEDAOBgNVBAMUB0NBX0RTU1IxIDAeBgkqhkiG9w0BCQEWEUNBX0RTU1JA
RkkuVVBNLkVTMB4XDTE1MDQyOTE3MTkwNVoXDTE2MDQyODE3MTkwNVowVDELMAkG
A1UEBhMCYXMxCzAJBgNVBAgTAmFzMQswCQYDVQQKEwJhczELMAkGA1UECxMCYXMx
CzAJBgNVBAMTAmdoMREwDwYJKoZIhvcNAQkBFgJnaDCBnzANBgkqhkiG9w0BAQEF
AAOBjQAwgYkCgYEAu1y+3MhzPduJmGH2ffVOLjcA2O4uUhmmmKu3252gDGZNuaSN
Ny6ocfvPLtETeGd5GshHqGaZxqNXoDPphZYvseWKg/EvJW47O3IZV59ujY4XnrjM
mVtdRiVoPBB3ojSw/OkN0+7lFlJk4qbQQsD5Sa3PL6VrWQsPfcm+8xPi+E8CAwEA
AaN7MHkwCQYDVR0TBAIwADAsBglghkgBhvhCAQ0EHxYdT3BlblNTTCBHZW5lcmF0
ZWQgQ2VydGlmaWNhdGUwHQYDVR0OBBYEFFvk8YRgZ+gc7UfrKB9b0T8y2i3qMB8G
A1UdIwQYMBaAFMijm5hEPe/OUBpYHe5CwqNT4h/+MA0GCSqGSIb3DQEBBQUAA4GB
AI9YUC9JMDVmet1pnMAdvM5Sj18XSeyxyfLEXiyef2ecJYILAflK6fcti5SnIvGn
lAo+hF+pBses96mc8HUaUvB53JCKzbqZTj+qXstMtUCkT7KsjqYVR1j6+MLHeVFv
a6jZILaWQkXgRZffGOYXF5LJVK1cutU8msjCDpKO6kEY
-----END CERTIFICATE-----
