Certificate:
    Data:
        Version: 3 (0x2)
        Serial Number: 2 (0x2)
        Signature Algorithm: sha1WithRSAEncryption
        Issuer: C=ES, ST=MA, L=BOA, O=FIM, OU=UPM, CN=CA_DSSR/emailAddress=CA_DSSR@FI.UPM.ES
        Validity
            Not Before: Apr 29 18:23:00 2015 GMT
            Not After : Apr 28 18:23:00 2016 GMT
        Subject: C=23, ST=23, O=23, OU=23, CN=23/emailAddress=23
        Subject Public Key Info:
            Public Key Algorithm: rsaEncryption
            RSA Public Key: (1024 bit)
                Modulus (1024 bit):
                    00:a1:e5:68:86:43:60:4f:ff:34:75:4e:69:81:2c:
                    48:cd:7a:d8:95:63:9a:c5:b1:86:ae:97:da:bb:cb:
                    a6:0a:c3:d9:06:15:ff:7f:26:e9:d5:39:39:23:d6:
                    a9:2b:74:9b:70:9e:da:89:13:d7:0d:ac:c8:4d:cc:
                    38:21:77:c5:95:95:f6:c8:6c:bf:00:bf:2e:d3:71:
                    4b:07:31:db:47:5b:0e:de:a9:0a:63:b0:59:3e:6a:
                    57:b1:b3:e8:1f:fe:34:7b:8e:3d:54:19:e8:4c:30:
                    cc:6e:14:82:90:51:66:0d:8c:9d:3d:9a:1c:bd:10:
                    15:cd:cd:e5:15:e1:34:41:41
                Exponent: 65537 (0x10001)
        X509v3 extensions:
            X509v3 Basic Constraints: 
                CA:FALSE
            Netscape Comment: 
                OpenSSL Generated Certificate
            X509v3 Subject Key Identifier: 
                B0:8A:1E:B8:F1:58:25:C6:0B:7F:54:E5:C5:26:80:41:12:33:92:C7
            X509v3 Authority Key Identifier: 
                keyid:C8:A3:9B:98:44:3D:EF:CE:50:1A:58:1D:EE:42:C2:A3:53:E2:1F:FE

    Signature Algorithm: sha1WithRSAEncryption
        8a:9a:6f:57:cd:ff:d7:e4:9e:ac:4f:12:21:dc:64:a8:4b:e9:
        20:fe:95:13:22:d8:3a:3f:2d:95:61:91:d5:08:63:55:52:c9:
        d7:b1:dd:9b:a8:dd:74:ec:ee:9b:cb:db:77:81:bf:f4:ba:71:
        8f:24:85:af:e9:4a:7b:cd:12:50:f8:e0:53:9a:ca:a6:71:fc:
        05:ca:8d:1c:22:93:e4:2d:8f:f7:d2:33:7f:bb:f3:53:ce:c3:
        7d:63:ef:07:85:49:1d:c3:83:d3:a1:42:83:2f:e9:df:5a:75:
        a4:fd:63:ed:9d:ad:f7:43:a6:8a:6e:d9:77:7d:b3:19:f5:67:
        a9:e4
-----BEGIN CERTIFICATE-----
MIICvTCCAiagAwIBAgIBAjANBgkqhkiG9w0BAQUFADB4MQswCQYDVQQGEwJFUzEL
MAkGA1UECBMCTUExDDAKBgNVBAcTA0JPQTEMMAoGA1UEChMDRklNMQwwCgYDVQQL
EwNVUE0xEDAOBgNVBAMUB0NBX0RTU1IxIDAeBgkqhkiG9w0BCQEWEUNBX0RTU1JA
RkkuVVBNLkVTMB4XDTE1MDQyOTE4MjMzNloXDTE2MDQyODE4MjMzNlowVDELMAkG
A1UEBhMCMjMxCzAJBgNVBAgTAjIzMQswCQYDVQQKEwIyMzELMAkGA1UECxMCMjMx
CzAJBgNVBAMTAjIzMREwDwYJKoZIhvcNAQkBFgIyMzCBnzANBgkqhkiG9w0BAQEF
AAOBjQAwgYkCgYEAoeVohkNgT/80dU5pgSxIzXrYlWOaxbGGrpfau8umCsPZBhX/
fybp1Tk5I9apK3SbcJ7aiRPXDazITcw4IXfFlZX2yGy/AL8u03FLBzHbR1sO3qkK
Y7BZPmpXsbPoH/40e449VBnoTDDMbhSCkFFmDYydPZocvRAVzc3lFeE0QUECAwEA
AaN7MHkwCQYDVR0TBAIwADAsBglghkgBhvhCAQ0EHxYdT3BlblNTTCBHZW5lcmF0
ZWQgQ2VydGlmaWNhdGUwHQYDVR0OBBYEFLCKHrjxWCXGC39U5cUmgEESM5LHMB8G
A1UdIwQYMBaAFMijm5hEPe/OUBpYHe5CwqNT4h/+MA0GCSqGSIb3DQEBBQUAA4GB
AIqab1fN/9fknqxPEiHcZKhL6SD+lRMi2Do/LZVhkdUIY1VSydex3Zuo3XTs7pvL
23eBv/S6cY8kha/pSnvNElD44FOayqZx/AXKjRwik+Qtj/fSM3+781POw31j7weF
SR3Dg9OhQoMv6d9adaT9Y+2drfdDpopu2Xd9sxn1Z6nk
-----END CERTIFICATE-----
